; Function Attrs: mustprogress nofree norecurse nosync nounwind willreturn memory(argmem: read) uwtable
define noundef i32 @_ZNK10open_spiel12breakthrough16BreakthroughGame18NumDistinctActionsEv(ptr noundef nonnull readonly align 8 captures(none) dereferenceable(288) %0) unnamed_addr #6 align 2 {
  %2 = getelementptr inbounds nuw i8, ptr %0, i64 280
  %3 = load i32, ptr %2, align 8
  %4 = getelementptr inbounds nuw i8, ptr %0, i64 284
  %5 = load i32, ptr %4, align 4
  %6 = mul i32 %3, 12
  %7 = mul i32 %6, %5
  ret i32 %7
}